; ModuleID = 'bench/faiss/original/distances_fused.ll'
source_filename = "bench/faiss/original/distances_fused.ll"
target datalayout = "e-m:e-p270:32:32-p271:32:32-p272:64:64-i64:64-i128:128-f80:128-n8:16:32:64-S128"
target triple = "x86_64-pc-linux-gnu"

%"class.std::ios_base::Init" = type { i8 }

@_ZStL8__ioinit = internal global %"class.std::ios_base::Init" zeroinitializer, align 1
@__dso_handle = external hidden global i8
@llvm.global_ctors = appending global [1 x { i32, ptr, ptr }] [{ i32, ptr, ptr } { i32 65535, ptr @_GLOBAL__sub_I_distances_fused.cpp, ptr null }]

declare void @_ZNSt8ios_base4InitC1Ev(ptr noundef nonnull align 1 dereferenceable(1)) unnamed_addr #0

; Function Attrs: nounwind
declare void @_ZNSt8ios_base4InitD1Ev(ptr noundef nonnull align 1 dereferenceable(1)) unnamed_addr #1

; Function Attrs: nofree nounwind
declare i32 @__cxa_atexit(ptr, ptr, ptr) local_unnamed_addr #2

; Function Attrs: mustprogress nofree norecurse nosync nounwind willreturn memory(none) uwtable
define noundef zeroext i1 @_ZN5faiss27exhaustive_L2sqr_fused_cmaxEPKfS1_mmmRNS_22Top1BlockResultHandlerINS_4CMaxIflEELb0EEES1_(ptr noundef readnone captures(none) %0, ptr noundef readnone captures(none) %1, i64 noundef %2, i64 noundef %3, i64 noundef %4, ptr noundef nonnull readnone align 8 captures(none) dereferenceable(56) %5, ptr noundef readnone captures(none) %6) local_unnamed_addr #3 {
  %8 = icmp eq i64 %3, 0
  %9 = icmp eq i64 %4, 0
  %or.cond = or i1 %8, %9
  ret i1 %or.cond
}

; Function Attrs: uwtable
define internal void @_GLOBAL__sub_I_distances_fused.cpp() #4 section ".text.startup" {
  tail call void @_ZNSt8ios_base4InitC1Ev(ptr noundef nonnull align 1 dereferenceable(1) @_ZStL8__ioinit)
  %1 = tail call i32 @__cxa_atexit(ptr nonnull @_ZNSt8ios_base4InitD1Ev, ptr nonnull @_ZStL8__ioinit, ptr nonnull @__dso_handle) #5
  ret void
}


!llvm.module.flags = !{!0, !1, !2, !3}

!0 = !{i32 1, !"wchar_size", i32 4}
!1 = !{i32 7, !"openmp", i32 51}
!2 = !{i32 8, !"PIC Level", i32 2}
!3 = !{i32 7, !"uwtable", i32 2}
